target datalayout = "e-m:e-p270:32:32-p271:32:32-p272:64:64-i64:64-i128:128-f80:128-n8:16:32:64-S128"
target triple = "x86_64-pc-linux-gnu"

%struct.AVFormatContext = type { ptr, ptr, ptr, ptr, ptr, i32, i32, ptr, i32, ptr, i32, ptr, ptr, i64, i64, i64, i32, i32, i32, i64, i64, ptr, i32, i32, ptr, i32, i32, i32, i32, ptr, i64, i32, i32, %struct.AVIOInterruptCB, i32, i32, i32, i32, i64, i32, i32, i32, i32, i32, i32, i32, i32, i32, i32, i32, i32, i64, i32, i32, i32, i32, i32, ptr, ptr, ptr, ptr, i32, ptr, ptr, ptr, ptr, i32, ptr, ptr, i64, ptr, ptr, ptr, i64 }
%struct.AVIOInterruptCB = type { ptr, ptr }
%struct.DASHContext = type { ptr, ptr, ptr, i32, i32, i32, i64, i64, i32, i32, i32, i32, ptr, i32, i64, i64, [100 x i8], i64, i64, [1024 x i8], ptr, ptr, ptr, ptr, ptr, ptr, ptr, i32, ptr, i32, i32, ptr, ptr, ptr, i32, i64, i32, ptr, i32, i32, i32, i32, i32, i32, i32, i32, i32, i32, i64, i64, i32, i64, i32, %struct.AVRational, %struct.AVRational, i64 }
%struct.AVRational = type { i32, i32 }

@.str.100 = private unnamed_addr constant [30 x i8] c"Assertion %s failed at %s:%d\0A\00", align 1
@.str.101 = private unnamed_addr constant [17 x i8] c"http_url_context\00", align 1
@.str.102 = private unnamed_addr constant [22 x i8] c"libavformat/dashenc.c\00", align 1

; Function Attrs: nounwind uwtable
define internal i32 @dashenc_io_open(ptr noundef %0, ptr noundef %1, ptr noundef %2, ptr noundef %3) #0 {
  %5 = alloca ptr, align 8
  %6 = alloca ptr, align 8
  %7 = alloca ptr, align 8
  %8 = alloca ptr, align 8
  %9 = alloca ptr, align 8
  %10 = alloca i32, align 4
  %11 = alloca i32, align 4
  %12 = alloca ptr, align 8
  store ptr %0, ptr %5, align 8, !tbaa !4
  store ptr %1, ptr %6, align 8, !tbaa !204
  store ptr %2, ptr %7, align 8, !tbaa !116
  store ptr %3, ptr %8, align 8, !tbaa !233
  call void @llvm.lifetime.start.p0(i64 8, ptr %9) #13
  %13 = load ptr, ptr %5, align 8, !tbaa !4
  %14 = getelementptr inbounds nuw %struct.AVFormatContext, ptr %13, i32 0, i32 3
  %15 = load ptr, ptr %14, align 8, !tbaa !9
  store ptr %15, ptr %9, align 8, !tbaa !26
  call void @llvm.lifetime.start.p0(i64 4, ptr %10) #13
  %16 = load ptr, ptr %7, align 8, !tbaa !116
  %17 = icmp ne ptr %16, null
  br i1 %17, label %18, label %21

18:                                               ; preds = %4
  %19 = load ptr, ptr %7, align 8, !tbaa !116
  %20 = call i32 @ff_is_http_proto(ptr noundef %19)
  br label %22

21:                                               ; preds = %4
  br label %22

22:                                               ; preds = %21, %18
  %23 = phi i32 [ %20, %18 ], [ 0, %21 ]
  store i32 %23, ptr %10, align 4, !tbaa !28
  call void @llvm.lifetime.start.p0(i64 4, ptr %11) #13
  store i32 -1481985528, ptr %11, align 4, !tbaa !28
  %24 = load ptr, ptr %6, align 8, !tbaa !204
  %25 = load ptr, ptr %24, align 8, !tbaa !206
  %26 = icmp ne ptr %25, null
  br i1 %26, label %27, label %35

27:                                               ; preds = %22
  %28 = load i32, ptr %10, align 4, !tbaa !28
  %29 = icmp ne i32 %28, 0
  br i1 %29, label %30, label %35

30:                                               ; preds = %27
  %31 = load ptr, ptr %9, align 8, !tbaa !26
  %32 = getelementptr inbounds nuw %struct.DASHContext, ptr %31, i32 0, i32 29
  %33 = load i32, ptr %32, align 8, !tbaa !207
  %34 = icmp ne i32 %33, 0
  br i1 %34, label %44, label %35

35:                                               ; preds = %30, %27, %22
  %36 = load ptr, ptr %5, align 8, !tbaa !4
  %37 = getelementptr inbounds nuw %struct.AVFormatContext, ptr %36, i32 0, i32 71
  %38 = load ptr, ptr %37, align 8, !tbaa !152
  %39 = load ptr, ptr %5, align 8, !tbaa !4
  %40 = load ptr, ptr %6, align 8, !tbaa !204
  %41 = load ptr, ptr %7, align 8, !tbaa !116
  %42 = load ptr, ptr %8, align 8, !tbaa !233
  %43 = call i32 %38(ptr noundef %39, ptr noundef %40, ptr noundef %41, i32 noundef 2, ptr noundef %42)
  store i32 %43, ptr %11, align 4, !tbaa !28
  br label %65

44:                                               ; preds = %30
  call void @llvm.lifetime.start.p0(i64 8, ptr %12) #13
  %45 = load ptr, ptr %6, align 8, !tbaa !204
  %46 = load ptr, ptr %45, align 8, !tbaa !206
  %47 = call ptr @ffio_geturlcontext(ptr noundef %46)
  store ptr %47, ptr %12, align 8, !tbaa !208
  br label %48

48:                                               ; preds = %44
  %49 = load ptr, ptr %12, align 8, !tbaa !208
  %50 = icmp ne ptr %49, null
  br i1 %50, label %52, label %51

51:                                               ; preds = %48
  call void (ptr, i32, ptr, ...) @av_log(ptr noundef null, i32 noundef 0, ptr noundef @.str.100, ptr noundef @.str.101, ptr noundef @.str.102, i32 noundef 231)
  call void @abort() #15
  unreachable

52:                                               ; preds = %48
  br label %53

53:                                               ; preds = %52
  br label %54

54:                                               ; preds = %53
  %55 = load ptr, ptr %12, align 8, !tbaa !208
  %56 = load ptr, ptr %7, align 8, !tbaa !116
  %57 = call i32 @ff_http_do_new_request(ptr noundef %55, ptr noundef %56)
  store i32 %57, ptr %11, align 4, !tbaa !28
  %58 = load i32, ptr %11, align 4, !tbaa !28
  %59 = icmp slt i32 %58, 0
  br i1 %59, label %60, label %64

60:                                               ; preds = %54
  %61 = load ptr, ptr %5, align 8, !tbaa !4
  %62 = load ptr, ptr %6, align 8, !tbaa !204
  %63 = call i32 @ff_format_io_close(ptr noundef %61, ptr noundef %62)
  br label %64

64:                                               ; preds = %60, %54
  call void @llvm.lifetime.end.p0(i64 8, ptr %12) #13
  br label %65

65:                                               ; preds = %64, %35
  %66 = load i32, ptr %11, align 4, !tbaa !28
  call void @llvm.lifetime.end.p0(i64 4, ptr %11) #13
  call void @llvm.lifetime.end.p0(i64 4, ptr %10) #13
  call void @llvm.lifetime.end.p0(i64 8, ptr %9) #13
  ret i32 %66
}